target datalayout = "e-m:e-p270:32:32-p271:32:32-p272:64:64-i64:64-i128:128-f80:128-n8:16:32:64-S128"
target triple = "x86_64-pc-linux-gnu"

%"struct.std::pair.16" = type { ptr, ptr }
%"struct.google::protobuf::internal::SerialArena::CleanupNode" = type { ptr, ptr }

@_ZTIN17opencv_tensorflow11TensorProtoE = hidden constant { ptr, ptr, ptr } { ptr getelementptr inbounds (ptr, ptr @_ZTVN10__cxxabiv120__si_class_type_infoE, i64 2), ptr @_ZTSN17opencv_tensorflow11TensorProtoE, ptr @_ZTIN6google8protobuf7MessageE }, align 8
@_ZN17opencv_tensorflow11TensorProtoC1EPN6google8protobuf5ArenaEb = hidden unnamed_addr alias void (ptr, ptr, i1), ptr @_ZN17opencv_tensorflow11TensorProtoC2EPN6google8protobuf5ArenaEb

; Function Attrs: mustprogress uwtable
define linkonce_odr hidden noundef ptr @_ZN6google8protobuf5Arena14InternalHelperIN17opencv_tensorflow11TensorProtoEE9ConstructIJPS1_EEEPS4_PvDpOT_(ptr noundef %0, ptr noundef nonnull align 8 dereferenceable(8) %1) #4 comdat align 2 {
  %3 = alloca ptr, align 8
  %4 = alloca ptr, align 8
  store ptr %0, ptr %3, align 8
  store ptr %1, ptr %4, align 8
  %5 = load ptr, ptr %3, align 8
  %6 = load ptr, ptr %4, align 8
  %7 = load ptr, ptr %6, align 8
  call void @_ZN17opencv_tensorflow11TensorProtoC1EPN6google8protobuf5ArenaEb(ptr noundef nonnull align 8 dereferenceable(224) %5, ptr noundef %7, i1 noundef zeroext false)
  ret ptr %5
}

; Function Attrs: mustprogress nounwind uwtable
define linkonce_odr hidden noundef i64 @_ZN6google8protobuf8internal10AlignUpTo8Em(i64 noundef %0) #5 comdat {
  %2 = alloca i64, align 8
  store i64 %0, ptr %2, align 8
  %3 = load i64, ptr %2, align 8
  %4 = add i64 %3, 7
  %5 = and i64 %4, -8
  ret i64 %5
}

; Function Attrs: mustprogress uwtable
define linkonce_odr hidden noundef ptr @_ZN6google8protobuf5Arena23AllocateAlignedWithHookEmmPKSt9type_info(ptr noundef nonnull align 8 dereferenceable(32) %0, i64 noundef %1, i64 noundef %2, ptr noundef %3) #4 comdat align 2 {
  %5 = alloca ptr, align 8
  %6 = alloca i64, align 8
  %7 = alloca ptr, align 8
  %8 = alloca ptr, align 8
  %9 = alloca i64, align 8
  %10 = alloca i64, align 8
  %11 = alloca ptr, align 8
  store ptr %0, ptr %8, align 8
  store i64 %1, ptr %9, align 8
  store i64 %2, ptr %10, align 8
  store ptr %3, ptr %11, align 8
  %12 = load ptr, ptr %8, align 8
  %13 = load i64, ptr %10, align 8
  %14 = icmp ule i64 %13, 8
  br i1 %14, label %15, label %20

15:                                               ; preds = %4
  %16 = load i64, ptr %9, align 8
  %17 = call noundef i64 @_ZN6google8protobuf8internal10AlignUpTo8Em(i64 noundef %16)
  %18 = load ptr, ptr %11, align 8
  %19 = call noundef ptr @_ZN6google8protobuf5Arena23AllocateAlignedWithHookEmPKSt9type_info(ptr noundef nonnull align 8 dereferenceable(32) %12, i64 noundef %17, ptr noundef %18)
  store ptr %19, ptr %7, align 8
  br label %38

20:                                               ; preds = %4
  %21 = load i64, ptr %9, align 8
  %22 = load i64, ptr %10, align 8
  %23 = add i64 %21, %22
  %24 = sub i64 %23, 8
  %25 = load ptr, ptr %11, align 8
  %26 = call noundef ptr @_ZN6google8protobuf5Arena23AllocateAlignedWithHookEmPKSt9type_info(ptr noundef nonnull align 8 dereferenceable(32) %12, i64 noundef %24, ptr noundef %25)
  %27 = load i64, ptr %10, align 8
  store ptr %26, ptr %5, align 8
  store i64 %27, ptr %6, align 8
  %28 = load ptr, ptr %5, align 8
  %29 = ptrtoint ptr %28 to i64
  %30 = load i64, ptr %6, align 8
  %31 = add i64 %29, %30
  %32 = sub i64 %31, 1
  %33 = load i64, ptr %6, align 8
  %34 = xor i64 %33, -1
  %35 = add i64 %34, 1
  %36 = and i64 %32, %35
  %37 = inttoptr i64 %36 to ptr
  store ptr %37, ptr %7, align 8
  br label %38

38:                                               ; preds = %20, %15
  %39 = load ptr, ptr %7, align 8
  ret ptr %39
}

; Function Attrs: mustprogress uwtable
define hidden noundef ptr @_ZN6google8protobuf5Arena18CreateMaybeMessageIN17opencv_tensorflow11TensorProtoEJEEEPT_PS1_DpOT0_(ptr noundef %0) #4 align 2 personality ptr @__gxx_personality_v0 {
  %2 = alloca ptr, align 8
  %3 = alloca i64, align 8
  %4 = alloca ptr, align 8
  %5 = alloca ptr, align 8
  %6 = alloca i64, align 8
  %7 = alloca i64, align 8
  %8 = alloca ptr, align 8
  %9 = alloca ptr, align 8
  %10 = alloca %"struct.std::pair.16", align 8
  %11 = alloca %"struct.std::pair.16", align 8
  %12 = alloca ptr, align 8
  %13 = alloca ptr, align 8
  %14 = alloca ptr, align 8
  %15 = alloca ptr, align 8
  %16 = alloca i32, align 4
  %17 = alloca ptr, align 8
  %18 = alloca ptr, align 8
  %19 = alloca ptr, align 8
  store ptr %0, ptr %19, align 8
  %20 = load ptr, ptr %19, align 8
  store ptr %20, ptr %18, align 8
  %21 = load ptr, ptr %18, align 8
  %22 = icmp eq ptr %21, null
  br i1 %22, label %23, label %34

23:                                               ; preds = %1
  %24 = call noalias noundef nonnull ptr @_Znwm(i64 noundef 224) #13
  invoke void @_ZN17opencv_tensorflow11TensorProtoC1EPN6google8protobuf5ArenaEb(ptr noundef nonnull align 8 dereferenceable(224) %24, ptr noundef null, i1 noundef zeroext false)
          to label %33 unwind label %25

25:                                               ; preds = %23
  %26 = landingpad { ptr, i32 }
          cleanup
  %27 = extractvalue { ptr, i32 } %26, 0
  store ptr %27, ptr %15, align 8
  %28 = extractvalue { ptr, i32 } %26, 1
  store i32 %28, ptr %16, align 4
  call void @_ZdlPv(ptr noundef %24) #12
  %29 = load ptr, ptr %15, align 8
  %30 = load i32, ptr %16, align 4
  %31 = insertvalue { ptr, i32 } poison, ptr %29, 0
  %32 = insertvalue { ptr, i32 } %31, i32 %30, 1
  resume { ptr, i32 } %32

33:                                               ; preds = %23
  store ptr %24, ptr %17, align 8
  br label %97

34:                                               ; preds = %1
  %35 = load ptr, ptr %18, align 8
  store ptr %35, ptr %13, align 8
  %36 = load ptr, ptr %13, align 8
  store ptr %36, ptr %5, align 8
  store i64 224, ptr %6, align 8
  store i64 8, ptr %7, align 8
  store ptr null, ptr %8, align 8
  store ptr @_ZTIN17opencv_tensorflow11TensorProtoE, ptr %9, align 8
  %37 = load ptr, ptr %5, align 8
  %38 = load ptr, ptr %8, align 8
  %39 = icmp eq ptr %38, null
  br i1 %39, label %40, label %45

40:                                               ; preds = %34
  %41 = load i64, ptr %6, align 8
  %42 = load i64, ptr %7, align 8
  %43 = load ptr, ptr %9, align 8
  %44 = call noundef ptr @_ZN6google8protobuf5Arena23AllocateAlignedWithHookEmmPKSt9type_info(ptr noundef nonnull align 8 dereferenceable(32) %37, i64 noundef %41, i64 noundef %42, ptr noundef %43)
  store ptr %44, ptr %4, align 8
  br label %94

45:                                               ; preds = %34
  %46 = load i64, ptr %7, align 8
  %47 = icmp ule i64 %46, 8
  br i1 %47, label %48, label %64

48:                                               ; preds = %45
  %49 = load i64, ptr %6, align 8
  %50 = call noundef i64 @_ZN6google8protobuf8internal10AlignUpTo8Em(i64 noundef %49)
  %51 = load ptr, ptr %9, align 8
  %52 = call { ptr, ptr } @_ZN6google8protobuf5Arena26AllocateAlignedWithCleanupEmPKSt9type_info(ptr noundef nonnull align 8 dereferenceable(32) %37, i64 noundef %50, ptr noundef %51)
  %53 = extractvalue { ptr, ptr } %52, 0
  store ptr %53, ptr %10, align 8
  %54 = getelementptr inbounds { ptr, ptr }, ptr %10, i32 0, i32 1
  %55 = extractvalue { ptr, ptr } %52, 1
  store ptr %55, ptr %54, align 8
  %56 = load ptr, ptr %10, align 8
  %57 = getelementptr inbounds %"struct.std::pair.16", ptr %10, i32 0, i32 1
  %58 = load ptr, ptr %57, align 8
  store ptr %56, ptr %58, align 8
  %59 = load ptr, ptr %8, align 8
  %60 = getelementptr inbounds %"struct.std::pair.16", ptr %10, i32 0, i32 1
  %61 = load ptr, ptr %60, align 8
  %62 = getelementptr inbounds %"struct.google::protobuf::internal::SerialArena::CleanupNode", ptr %61, i32 0, i32 1
  store ptr %59, ptr %62, align 8
  %63 = load ptr, ptr %10, align 8
  store ptr %63, ptr %4, align 8
  br label %94

64:                                               ; preds = %45
  %65 = load i64, ptr %6, align 8
  %66 = load i64, ptr %7, align 8
  %67 = add i64 %65, %66
  %68 = sub i64 %67, 8
  %69 = load ptr, ptr %9, align 8
  %70 = call { ptr, ptr } @_ZN6google8protobuf5Arena26AllocateAlignedWithCleanupEmPKSt9type_info(ptr noundef nonnull align 8 dereferenceable(32) %37, i64 noundef %68, ptr noundef %69)
  %71 = extractvalue { ptr, ptr } %70, 0
  store ptr %71, ptr %11, align 8
  %72 = getelementptr inbounds { ptr, ptr }, ptr %11, i32 0, i32 1
  %73 = extractvalue { ptr, ptr } %70, 1
  store ptr %73, ptr %72, align 8
  %74 = load ptr, ptr %11, align 8
  %75 = load i64, ptr %7, align 8
  store ptr %74, ptr %2, align 8
  store i64 %75, ptr %3, align 8
  %76 = load ptr, ptr %2, align 8
  %77 = ptrtoint ptr %76 to i64
  %78 = load i64, ptr %3, align 8
  %79 = add i64 %77, %78
  %80 = sub i64 %79, 1
  %81 = load i64, ptr %3, align 8
  %82 = xor i64 %81, -1
  %83 = add i64 %82, 1
  %84 = and i64 %80, %83
  %85 = inttoptr i64 %84 to ptr
  store ptr %85, ptr %12, align 8
  %86 = load ptr, ptr %12, align 8
  %87 = getelementptr inbounds %"struct.std::pair.16", ptr %11, i32 0, i32 1
  %88 = load ptr, ptr %87, align 8
  store ptr %86, ptr %88, align 8
  %89 = load ptr, ptr %8, align 8
  %90 = getelementptr inbounds %"struct.std::pair.16", ptr %11, i32 0, i32 1
  %91 = load ptr, ptr %90, align 8
  %92 = getelementptr inbounds %"struct.google::protobuf::internal::SerialArena::CleanupNode", ptr %91, i32 0, i32 1
  store ptr %89, ptr %92, align 8
  %93 = load ptr, ptr %12, align 8
  store ptr %93, ptr %4, align 8
  br label %94

94:                                               ; preds = %64, %48, %40
  %95 = load ptr, ptr %4, align 8
  store ptr %36, ptr %14, align 8
  %96 = call noundef ptr @_ZN6google8protobuf5Arena14InternalHelperIN17opencv_tensorflow11TensorProtoEE9ConstructIJPS1_EEEPS4_PvDpOT_(ptr noundef %95, ptr noundef nonnull align 8 dereferenceable(8) %14)
  store ptr %96, ptr %17, align 8
  br label %97

97:                                               ; preds = %94, %33
  %98 = load ptr, ptr %17, align 8
  ret ptr %98
}