; Function Attrs: mustprogress uwtable
define hidden noundef ptr @_ZN6google8protobuf5Arena18CreateMaybeMessageIN17opencv_tensorflow11TensorProtoEJEEEPT_PS1_DpOT0_(ptr noundef %0) local_unnamed_addr #3 align 2 personality ptr @__gxx_personality_v0 {
  %2 = icmp eq ptr %0, null
  br i1 %2, label %3, label %7

3:                                                ; preds = %1
  %4 = tail call noalias noundef nonnull dereferenceable(224) ptr @_Znwm(i64 noundef 224) #18
  invoke void @_ZN17opencv_tensorflow11TensorProtoC2EPN6google8protobuf5ArenaEb(ptr noundef nonnull align 8 dereferenceable(224) %4, ptr noundef null, i1 noundef zeroext false)
          to label %9 unwind label %5

5:                                                ; preds = %3
  %6 = landingpad { ptr, i32 }
          cleanup
  tail call void @_ZdlPv(ptr noundef nonnull %4) #17
  resume { ptr, i32 } %6

7:                                                ; preds = %1
  %8 = tail call noundef ptr @_ZN6google8protobuf5Arena23AllocateAlignedWithHookEmPKSt9type_info(ptr noundef nonnull align 8 dereferenceable(32) %0, i64 noundef 224, ptr noundef nonnull @_ZTIN17opencv_tensorflow11TensorProtoE)
  tail call void @_ZN17opencv_tensorflow11TensorProtoC2EPN6google8protobuf5ArenaEb(ptr noundef nonnull align 8 dereferenceable(224) %8, ptr noundef nonnull %0, i1 noundef zeroext false)
  br label %9

9:                                                ; preds = %3, %7
  %.030 = phi ptr [ %8, %7 ], [ %4, %3 ]
  ret ptr %.030
}